; ModuleID = '20/104.c'
source_filename = "20/104.c"
target datalayout = "e-m:e-p270:32:32-p271:32:32-p272:64:64-i64:64-f80:128-n8:16:32:64-S128"
target triple = "x86_64-pc-linux-gnu"

@.str = private unnamed_addr constant [6 x i8] c"%s %s\00", align 1
@.str.1 = private unnamed_addr constant [4 x i8] c"%s\0A\00", align 1

; Function Attrs: noinline nounwind uwtable
define dso_local void @main() #0 {
  %1 = alloca [100 x [10 x i8]], align 16
  %2 = alloca [100 x [3 x i8]], align 16
  %3 = alloca [100 x [13 x i8]], align 16
  %4 = alloca i32, align 4
  %5 = alloca i32, align 4
  %6 = alloca i32, align 4
  %7 = alloca i32, align 4
  %8 = bitcast [100 x [10 x i8]]* %1 to i8*
  call void @llvm.memset.p0i8.i64(i8* align 16 %8, i8 0, i64 1000, i1 false)
  %9 = bitcast [100 x [3 x i8]]* %2 to i8*
  call void @llvm.memset.p0i8.i64(i8* align 16 %9, i8 0, i64 300, i1 false)
  %10 = bitcast [100 x [13 x i8]]* %3 to i8*
  call void @llvm.memset.p0i8.i64(i8* align 16 %10, i8 0, i64 1300, i1 false)
  store i32 0, i32* %4, align 4
  store i32 0, i32* %5, align 4
  store i32 0, i32* %6, align 4
  store i32 0, i32* %7, align 4
  store i32 0, i32* %4, align 4
  br label %11

11:                                               ; preds = %159, %0
  %12 = load i32, i32* %4, align 4
  %13 = icmp slt i32 %12, 100
  br i1 %13, label %14, label %162

14:                                               ; preds = %11
  %15 = load i32, i32* %4, align 4
  %16 = sext i32 %15 to i64
  %17 = getelementptr inbounds [100 x [10 x i8]], [100 x [10 x i8]]* %1, i64 0, i64 %16
  %18 = getelementptr inbounds [10 x i8], [10 x i8]* %17, i64 0, i64 0
  %19 = load i32, i32* %4, align 4
  %20 = sext i32 %19 to i64
  %21 = getelementptr inbounds [100 x [3 x i8]], [100 x [3 x i8]]* %2, i64 0, i64 %20
  %22 = getelementptr inbounds [3 x i8], [3 x i8]* %21, i64 0, i64 0
  %23 = call i32 (i8*, ...) @__isoc99_scanf(i8* getelementptr inbounds ([6 x i8], [6 x i8]* @.str, i64 0, i64 0), i8* %18, i8* %22)
  %24 = load i32, i32* %4, align 4
  %25 = sext i32 %24 to i64
  %26 = getelementptr inbounds [100 x [10 x i8]], [100 x [10 x i8]]* %1, i64 0, i64 %25
  %27 = getelementptr inbounds [10 x i8], [10 x i8]* %26, i64 0, i64 0
  %28 = load i8, i8* %27, align 2
  %29 = sext i8 %28 to i32
  %30 = icmp eq i32 %29, 0
  br i1 %30, label %31, label %32

31:                                               ; preds = %14
  br label %162

32:                                               ; preds = %14
  %33 = load i32, i32* %4, align 4
  %34 = sext i32 %33 to i64
  %35 = getelementptr inbounds [100 x [10 x i8]], [100 x [10 x i8]]* %1, i64 0, i64 %34
  %36 = getelementptr inbounds [10 x i8], [10 x i8]* %35, i64 0, i64 0
  %37 = call i64 @strlen(i8* %36) #4
  %38 = trunc i64 %37 to i32
  store i32 %38, i32* %7, align 4
  store i32 0, i32* %5, align 4
  br label %39

39:                                               ; preds = %66, %32
  %40 = load i32, i32* %5, align 4
  %41 = load i32, i32* %7, align 4
  %42 = icmp slt i32 %40, %41
  br i1 %42, label %43, label %69

43:                                               ; preds = %39
  %44 = load i32, i32* %4, align 4
  %45 = sext i32 %44 to i64
  %46 = getelementptr inbounds [100 x [10 x i8]], [100 x [10 x i8]]* %1, i64 0, i64 %45
  %47 = load i32, i32* %5, align 4
  %48 = add nsw i32 %47, 1
  %49 = sext i32 %48 to i64
  %50 = getelementptr inbounds [10 x i8], [10 x i8]* %46, i64 0, i64 %49
  %51 = load i8, i8* %50, align 1
  %52 = sext i8 %51 to i32
  %53 = load i32, i32* %4, align 4
  %54 = sext i32 %53 to i64
  %55 = getelementptr inbounds [100 x [10 x i8]], [100 x [10 x i8]]* %1, i64 0, i64 %54
  %56 = load i32, i32* %6, align 4
  %57 = sext i32 %56 to i64
  %58 = getelementptr inbounds [10 x i8], [10 x i8]* %55, i64 0, i64 %57
  %59 = load i8, i8* %58, align 1
  %60 = sext i8 %59 to i32
  %61 = icmp sgt i32 %52, %60
  br i1 %61, label %62, label %65

62:                                               ; preds = %43
  %63 = load i32, i32* %5, align 4
  %64 = add nsw i32 %63, 1
  store i32 %64, i32* %6, align 4
  br label %65

65:                                               ; preds = %62, %43
  br label %66

66:                                               ; preds = %65
  %67 = load i32, i32* %5, align 4
  %68 = add nsw i32 %67, 1
  store i32 %68, i32* %5, align 4
  br label %39

69:                                               ; preds = %39
  store i32 0, i32* %5, align 4
  br label %70

70:                                               ; preds = %88, %69
  %71 = load i32, i32* %5, align 4
  %72 = load i32, i32* %6, align 4
  %73 = icmp sle i32 %71, %72
  br i1 %73, label %74, label %91

74:                                               ; preds = %70
  %75 = load i32, i32* %4, align 4
  %76 = sext i32 %75 to i64
  %77 = getelementptr inbounds [100 x [10 x i8]], [100 x [10 x i8]]* %1, i64 0, i64 %76
  %78 = load i32, i32* %5, align 4
  %79 = sext i32 %78 to i64
  %80 = getelementptr inbounds [10 x i8], [10 x i8]* %77, i64 0, i64 %79
  %81 = load i8, i8* %80, align 1
  %82 = load i32, i32* %4, align 4
  %83 = sext i32 %82 to i64
  %84 = getelementptr inbounds [100 x [13 x i8]], [100 x [13 x i8]]* %3, i64 0, i64 %83
  %85 = load i32, i32* %5, align 4
  %86 = sext i32 %85 to i64
  %87 = getelementptr inbounds [13 x i8], [13 x i8]* %84, i64 0, i64 %86
  store i8 %81, i8* %87, align 1
  br label %88

88:                                               ; preds = %74
  %89 = load i32, i32* %5, align 4
  %90 = add nsw i32 %89, 1
  store i32 %90, i32* %5, align 4
  br label %70

91:                                               ; preds = %70
  %92 = load i32, i32* %4, align 4
  %93 = sext i32 %92 to i64
  %94 = getelementptr inbounds [100 x [3 x i8]], [100 x [3 x i8]]* %2, i64 0, i64 %93
  %95 = getelementptr inbounds [3 x i8], [3 x i8]* %94, i64 0, i64 0
  %96 = load i8, i8* %95, align 1
  %97 = load i32, i32* %4, align 4
  %98 = sext i32 %97 to i64
  %99 = getelementptr inbounds [100 x [13 x i8]], [100 x [13 x i8]]* %3, i64 0, i64 %98
  %100 = load i32, i32* %6, align 4
  %101 = add nsw i32 %100, 1
  %102 = sext i32 %101 to i64
  %103 = getelementptr inbounds [13 x i8], [13 x i8]* %99, i64 0, i64 %102
  store i8 %96, i8* %103, align 1
  %104 = load i32, i32* %4, align 4
  %105 = sext i32 %104 to i64
  %106 = getelementptr inbounds [100 x [3 x i8]], [100 x [3 x i8]]* %2, i64 0, i64 %105
  %107 = getelementptr inbounds [3 x i8], [3 x i8]* %106, i64 0, i64 1
  %108 = load i8, i8* %107, align 1
  %109 = load i32, i32* %4, align 4
  %110 = sext i32 %109 to i64
  %111 = getelementptr inbounds [100 x [13 x i8]], [100 x [13 x i8]]* %3, i64 0, i64 %110
  %112 = load i32, i32* %6, align 4
  %113 = add nsw i32 %112, 2
  %114 = sext i32 %113 to i64
  %115 = getelementptr inbounds [13 x i8], [13 x i8]* %111, i64 0, i64 %114
  store i8 %108, i8* %115, align 1
  %116 = load i32, i32* %4, align 4
  %117 = sext i32 %116 to i64
  %118 = getelementptr inbounds [100 x [3 x i8]], [100 x [3 x i8]]* %2, i64 0, i64 %117
  %119 = getelementptr inbounds [3 x i8], [3 x i8]* %118, i64 0, i64 2
  %120 = load i8, i8* %119, align 1
  %121 = load i32, i32* %4, align 4
  %122 = sext i32 %121 to i64
  %123 = getelementptr inbounds [100 x [13 x i8]], [100 x [13 x i8]]* %3, i64 0, i64 %122
  %124 = load i32, i32* %6, align 4
  %125 = add nsw i32 %124, 3
  %126 = sext i32 %125 to i64
  %127 = getelementptr inbounds [13 x i8], [13 x i8]* %123, i64 0, i64 %126
  store i8 %120, i8* %127, align 1
  %128 = load i32, i32* %4, align 4
  %129 = sext i32 %128 to i64
  %130 = getelementptr inbounds [100 x [10 x i8]], [100 x [10 x i8]]* %1, i64 0, i64 %129
  %131 = getelementptr inbounds [10 x i8], [10 x i8]* %130, i64 0, i64 0
  %132 = call i64 @strlen(i8* %131) #4
  %133 = trunc i64 %132 to i32
  store i32 %133, i32* %7, align 4
  %134 = load i32, i32* %6, align 4
  %135 = add nsw i32 %134, 1
  store i32 %135, i32* %5, align 4
  br label %136

136:                                              ; preds = %155, %91
  %137 = load i32, i32* %5, align 4
  %138 = load i32, i32* %7, align 4
  %139 = icmp slt i32 %137, %138
  br i1 %139, label %140, label %158

140:                                              ; preds = %136
  %141 = load i32, i32* %4, align 4
  %142 = sext i32 %141 to i64
  %143 = getelementptr inbounds [100 x [10 x i8]], [100 x [10 x i8]]* %1, i64 0, i64 %142
  %144 = load i32, i32* %5, align 4
  %145 = sext i32 %144 to i64
  %146 = getelementptr inbounds [10 x i8], [10 x i8]* %143, i64 0, i64 %145
  %147 = load i8, i8* %146, align 1
  %148 = load i32, i32* %4, align 4
  %149 = sext i32 %148 to i64
  %150 = getelementptr inbounds [100 x [13 x i8]], [100 x [13 x i8]]* %3, i64 0, i64 %149
  %151 = load i32, i32* %5, align 4
  %152 = add nsw i32 %151, 3
  %153 = sext i32 %152 to i64
  %154 = getelementptr inbounds [13 x i8], [13 x i8]* %150, i64 0, i64 %153
  store i8 %147, i8* %154, align 1
  br label %155

155:                                              ; preds = %140
  %156 = load i32, i32* %5, align 4
  %157 = add nsw i32 %156, 1
  store i32 %157, i32* %5, align 4
  br label %136

158:                                              ; preds = %136
  br label %159

159:                                              ; preds = %158
  %160 = load i32, i32* %4, align 4
  %161 = add nsw i32 %160, 1
  store i32 %161, i32* %4, align 4
  br label %11

162:                                              ; preds = %31, %11
  store i32 0, i32* %6, align 4
  br label %163

163:                                              ; preds = %173, %162
  %164 = load i32, i32* %6, align 4
  %165 = load i32, i32* %4, align 4
  %166 = icmp slt i32 %164, %165
  br i1 %166, label %167, label %176

167:                                              ; preds = %163
  %168 = load i32, i32* %6, align 4
  %169 = sext i32 %168 to i64
  %170 = getelementptr inbounds [100 x [13 x i8]], [100 x [13 x i8]]* %3, i64 0, i64 %169
  %171 = getelementptr inbounds [13 x i8], [13 x i8]* %170, i64 0, i64 0
  %172 = call i32 (i8*, ...) @printf(i8* getelementptr inbounds ([4 x i8], [4 x i8]* @.str.1, i64 0, i64 0), i8* %171)
  br label %173

173:                                              ; preds = %167
  %174 = load i32, i32* %6, align 4
  %175 = add nsw i32 %174, 1
  store i32 %175, i32* %6, align 4
  br label %163

176:                                              ; preds = %163
  ret void
}

; Function Attrs: argmemonly nounwind willreturn
declare void @llvm.memset.p0i8.i64(i8* nocapture writeonly, i8, i64, i1 immarg) #1

declare dso_local i32 @__isoc99_scanf(i8*, ...) #2

; Function Attrs: nounwind readonly
declare dso_local i64 @strlen(i8*) #3

declare dso_local i32 @printf(i8*, ...) #2


!llvm.module.flags = !{!0}
!llvm.ident = !{!1}

!0 = !{i32 1, !"wchar_size", i32 4}
!1 = !{!"clang version 10.0.0-4ubuntu1 "}
